target datalayout = "e-m:e-p270:32:32-p271:32:32-p272:64:64-i64:64-i128:128-f80:128-n8:16:32:64-S128"
target triple = "x86_64-pc-linux-gnu"

%struct.Object = type { ptr, ptr, ptr, i32, ptr }
%struct.QTailQLink = type { ptr, ptr }
%struct.AHCIDevice = type { %struct.IDEDMA, %struct.IDEBus, i32, i32, i32, %struct.AHCIPortRegs, ptr, ptr, ptr, ptr, i8, i32, i8, ptr, [32 x %struct.NCQTransferState], %struct.MemReentrancyGuard }
%struct.IDEDMA = type { ptr, %struct.QEMUIOVector, ptr }
%struct.QEMUIOVector = type { ptr, i32, %union.anon.3 }
%union.anon.3 = type { %struct.anon.4 }
%struct.anon.4 = type { i32, %struct.iovec }
%struct.iovec = type { ptr, i64 }
%struct.IDEBus = type { %struct.BusState, ptr, ptr, [2 x %struct.IDEState], ptr, i32, i32, ptr, i8, i8, ptr, i32, i8, i64, i32, %struct.PortioList, %struct.PortioList, ptr }
%struct.BusState = type { %struct.Object, ptr, ptr, ptr, i32, i8, i8, i32, %union.BusChildHead, %struct.BusStateEntry, %struct.ResettableState }
%union.BusChildHead = type { %struct.QTailQLink }
%struct.BusStateEntry = type { ptr, ptr }
%struct.ResettableState = type { i32, i8, i8 }
%struct.IDEState = type { ptr, i8, i32, i32, i32, i32, i32, i32, i32, i64, i32, i32, [512 x i8], i32, [21 x i8], [41 x i8], i8, i64, i8, i8, i32, i8, i8, i8, i8, i8, i8, i8, i8, i8, i8, i8, i8, i8, ptr, [9 x i8], %struct.unreported_events, i8, i8, i8, i8, i8, i32, i32, i32, i32, i32, i32, %struct.BlockAcctCookie, ptr, %struct.QEMUIOVector, %struct.anon.6, i64, i32, %struct.QEMUSGList, i32, ptr, ptr, ptr, ptr, i32, i32, i32, i8, ptr, i32, i8, i32, ptr, i32, i32, i8, i8, i32, i8, ptr, i32 }
%struct.unreported_events = type { i8, i8 }
%struct.BlockAcctCookie = type { i64, i64, i32 }
%struct.anon.6 = type { ptr }
%struct.QEMUSGList = type { ptr, i32, i32, i64, ptr, ptr }
%struct.PortioList = type { ptr, ptr, ptr, i32, i32, ptr, ptr, ptr, i8 }
%struct.AHCIPortRegs = type { i32, i32, i32, i32, i32, i32, i32, i32, i32, i32, i32, i32, i32, i32, i32, i32 }
%struct.NCQTransferState = type { ptr, ptr, ptr, %struct.QEMUSGList, %struct.BlockAcctCookie, i32, i64, i8, i8, i8, i8, i8 }
%struct.MemReentrancyGuard = type { i8 }
%struct.timeval = type { i64, i64 }
%struct.MemTxAttrs = type { i32, i8, i8, i16 }

@trace_events_enabled_count = external global i32, align 4
@message_with_timestamp = external global i8, align 1
@qemu_loglevel = external global i32, align 4
@_TRACE_AHCI_DMA_RW_BUF_DSTATE = external global i16, align 2
@.str.186 = private unnamed_addr constant [52 x i8] c"%d@%zu.%06zu:ahci_dma_rw_buf ahci(%p)[%d] len=0x%x\0A\00", align 1
@.str.187 = private unnamed_addr constant [39 x i8] c"ahci_dma_rw_buf ahci(%p)[%d] len=0x%x\0A\00", align 1

; Function Attrs: inlinehint nounwind sspstrong uwtable
define internal zeroext i1 @qemu_loglevel_mask(i32 noundef %0) #7 {
  %2 = alloca i32, align 4
  store i32 %0, ptr %2, align 4
  %3 = load i32, ptr @qemu_loglevel, align 4
  %4 = load i32, ptr %2, align 4
  %5 = and i32 %3, %4
  %6 = icmp ne i32 %5, 0
  ret i1 %6
}

; Function Attrs: inlinehint nounwind sspstrong uwtable
define internal void @_nocheck__trace_ahci_dma_rw_buf(ptr noundef %0, i32 noundef %1, i32 noundef %2) #7 {
  %4 = alloca ptr, align 8
  %5 = alloca i32, align 4
  %6 = alloca i32, align 4
  %7 = alloca %struct.timeval, align 8
  store ptr %0, ptr %4, align 8
  store i32 %1, ptr %5, align 4
  store i32 %2, ptr %6, align 4
  %8 = load i32, ptr @trace_events_enabled_count, align 4
  %9 = icmp ne i32 %8, 0
  %10 = xor i1 %9, true
  %11 = xor i1 %10, true
  %12 = zext i1 %11 to i32
  %13 = sext i32 %12 to i64
  %14 = call i64 @llvm.expect.i64(i64 %13, i64 0)
  %15 = icmp ne i64 %14, 0
  br i1 %15, label %16, label %40

16:                                               ; preds = %3
  %17 = load i16, ptr @_TRACE_AHCI_DMA_RW_BUF_DSTATE, align 2
  %18 = zext i16 %17 to i32
  %19 = icmp ne i32 %18, 0
  br i1 %19, label %20, label %40

20:                                               ; preds = %16
  %21 = call zeroext i1 @qemu_loglevel_mask(i32 noundef 32768)
  br i1 %21, label %22, label %40

22:                                               ; preds = %20
  %23 = load i8, ptr @message_with_timestamp, align 1, !range !11, !noundef !12
  %24 = trunc i8 %23 to i1
  br i1 %24, label %25, label %35

25:                                               ; preds = %22
  call void @llvm.lifetime.start.p0(i64 16, ptr %7) #15
  call void @llvm.memset.p0.i64(ptr align 8 %7, i8 0, i64 16, i1 false), !annotation !4
  %26 = call i32 @gettimeofday(ptr noundef %7, ptr noundef null) #15
  %27 = call i32 @qemu_get_thread_id()
  %28 = getelementptr inbounds nuw %struct.timeval, ptr %7, i32 0, i32 0
  %29 = load i64, ptr %28, align 8
  %30 = getelementptr inbounds nuw %struct.timeval, ptr %7, i32 0, i32 1
  %31 = load i64, ptr %30, align 8
  %32 = load ptr, ptr %4, align 8
  %33 = load i32, ptr %5, align 4
  %34 = load i32, ptr %6, align 4
  call void (ptr, ...) @qemu_log(ptr noundef @.str.186, i32 noundef %27, i64 noundef %29, i64 noundef %31, ptr noundef %32, i32 noundef %33, i32 noundef %34)
  call void @llvm.lifetime.end.p0(i64 16, ptr %7) #15
  br label %39

35:                                               ; preds = %22
  %36 = load ptr, ptr %4, align 8
  %37 = load i32, ptr %5, align 4
  %38 = load i32, ptr %6, align 4
  call void (ptr, ...) @qemu_log(ptr noundef @.str.187, ptr noundef %36, i32 noundef %37, i32 noundef %38)
  br label %39

39:                                               ; preds = %35, %25
  br label %40

40:                                               ; preds = %39, %20, %16, %3
  ret void
}

; Function Attrs: inlinehint nounwind sspstrong uwtable
define internal void @trace_ahci_dma_rw_buf(ptr noundef %0, i32 noundef %1, i32 noundef %2) #7 {
  %4 = alloca ptr, align 8
  %5 = alloca i32, align 4
  %6 = alloca i32, align 4
  store ptr %0, ptr %4, align 8
  store i32 %1, ptr %5, align 4
  store i32 %2, ptr %6, align 4
  %7 = load ptr, ptr %4, align 8
  %8 = load i32, ptr %5, align 4
  %9 = load i32, ptr %6, align 4
  call void @_nocheck__trace_ahci_dma_rw_buf(ptr noundef %7, i32 noundef %8, i32 noundef %9)
  ret void
}

; Function Attrs: nounwind sspstrong uwtable
define internal i32 @ahci_dma_rw_buf(ptr noundef %0, i1 noundef zeroext %1) #0 {
  %3 = alloca i32, align 4
  %4 = alloca ptr, align 8
  %5 = alloca i8, align 1
  %6 = alloca ptr, align 8
  %7 = alloca ptr, align 8
  %8 = alloca ptr, align 8
  %9 = alloca ptr, align 8
  %10 = alloca ptr, align 8
  %11 = alloca ptr, align 8
  %12 = alloca i32, align 4
  %13 = alloca i32, align 4
  %14 = alloca %struct.MemTxAttrs, align 4
  %15 = alloca %struct.MemTxAttrs, align 4
  store ptr %0, ptr %4, align 8
  %16 = zext i1 %1 to i8
  store i8 %16, ptr %5, align 1
  call void @llvm.lifetime.start.p0(i64 8, ptr %6) #15
  call void @llvm.lifetime.start.p0(i64 8, ptr %8) #15
  %17 = load ptr, ptr %4, align 8
  store ptr %17, ptr %8, align 8
  %18 = load ptr, ptr %8, align 8
  %19 = getelementptr inbounds i8, ptr %18, i64 0
  store ptr %19, ptr %9, align 8
  call void @llvm.lifetime.end.p0(i64 8, ptr %8) #15
  %20 = load ptr, ptr %9, align 8
  store ptr %20, ptr %7, align 8
  %21 = load ptr, ptr %7, align 8
  store ptr %21, ptr %6, align 8
  call void @llvm.lifetime.start.p0(i64 8, ptr %10) #15
  %22 = load ptr, ptr %6, align 8
  %23 = getelementptr inbounds nuw %struct.AHCIDevice, ptr %22, i32 0, i32 1
  %24 = getelementptr inbounds nuw %struct.IDEBus, ptr %23, i32 0, i32 3
  %25 = getelementptr inbounds [2 x %struct.IDEState], ptr %24, i64 0, i64 0
  store ptr %25, ptr %10, align 8
  call void @llvm.lifetime.start.p0(i64 8, ptr %11) #15
  %26 = load ptr, ptr %10, align 8
  %27 = getelementptr inbounds nuw %struct.IDEState, ptr %26, i32 0, i32 59
  %28 = load ptr, ptr %27, align 8
  %29 = load ptr, ptr %10, align 8
  %30 = getelementptr inbounds nuw %struct.IDEState, ptr %29, i32 0, i32 44
  %31 = load i32, ptr %30, align 8
  %32 = sext i32 %31 to i64
  %33 = getelementptr inbounds i8, ptr %28, i64 %32
  store ptr %33, ptr %11, align 8
  call void @llvm.lifetime.start.p0(i64 4, ptr %12) #15
  %34 = load ptr, ptr %10, align 8
  %35 = getelementptr inbounds nuw %struct.IDEState, ptr %34, i32 0, i32 53
  %36 = load i32, ptr %35, align 8
  %37 = load ptr, ptr %10, align 8
  %38 = getelementptr inbounds nuw %struct.IDEState, ptr %37, i32 0, i32 44
  %39 = load i32, ptr %38, align 8
  %40 = sub i32 %36, %39
  store i32 %40, ptr %12, align 4
  %41 = load ptr, ptr %6, align 8
  %42 = load ptr, ptr %10, align 8
  %43 = getelementptr inbounds nuw %struct.IDEState, ptr %42, i32 0, i32 54
  %44 = load ptr, ptr %6, align 8
  %45 = getelementptr inbounds nuw %struct.AHCIDevice, ptr %44, i32 0, i32 13
  %46 = load ptr, ptr %45, align 8
  %47 = load i32, ptr %12, align 4
  %48 = sext i32 %47 to i64
  %49 = load ptr, ptr %10, align 8
  %50 = getelementptr inbounds nuw %struct.IDEState, ptr %49, i32 0, i32 52
  %51 = load i64, ptr %50, align 8
  %52 = call i32 @ahci_populate_sglist(ptr noundef %41, ptr noundef %43, ptr noundef %46, i64 noundef %48, i64 noundef %51)
  %53 = icmp ne i32 %52, 0
  br i1 %53, label %54, label %55

54:                                               ; preds = %2
  store i32 0, ptr %3, align 4
  store i32 1, ptr %13, align 4
  br label %131

55:                                               ; preds = %2
  %56 = load i8, ptr %5, align 1, !range !11, !noundef !12
  %57 = trunc i8 %56 to i1
  br i1 %57, label %58, label %87

58:                                               ; preds = %55
  %59 = load ptr, ptr %11, align 8
  %60 = load i32, ptr %12, align 4
  %61 = sext i32 %60 to i64
  %62 = load ptr, ptr %10, align 8
  %63 = getelementptr inbounds nuw %struct.IDEState, ptr %62, i32 0, i32 54
  store i32 0, ptr %14, align 4
  %64 = load i32, ptr %14, align 4
  %65 = and i32 %64, -2
  %66 = or i32 %65, 0
  store i32 %66, ptr %14, align 4
  %67 = load i32, ptr %14, align 4
  %68 = and i32 %67, -7
  %69 = or i32 %68, 0
  store i32 %69, ptr %14, align 4
  %70 = load i32, ptr %14, align 4
  %71 = and i32 %70, -9
  %72 = or i32 %71, 0
  store i32 %72, ptr %14, align 4
  %73 = load i32, ptr %14, align 4
  %74 = and i32 %73, -17
  %75 = or i32 %74, 0
  store i32 %75, ptr %14, align 4
  %76 = load i32, ptr %14, align 4
  %77 = and i32 %76, -2097121
  %78 = or i32 %77, 0
  store i32 %78, ptr %14, align 4
  %79 = load i32, ptr %14, align 4
  %80 = and i32 %79, -534773761
  %81 = or i32 %80, 0
  store i32 %81, ptr %14, align 4
  %82 = getelementptr inbounds nuw %struct.MemTxAttrs, ptr %14, i32 0, i32 1
  store i8 1, ptr %82, align 4
  %83 = getelementptr inbounds nuw %struct.MemTxAttrs, ptr %14, i32 0, i32 2
  store i8 0, ptr %83, align 1
  %84 = getelementptr inbounds nuw %struct.MemTxAttrs, ptr %14, i32 0, i32 3
  store i16 0, ptr %84, align 2
  %85 = load i64, ptr %14, align 4
  %86 = call i32 @dma_buf_read(ptr noundef %59, i64 noundef %61, ptr noundef null, ptr noundef %63, i64 %85)
  br label %116

87:                                               ; preds = %55
  %88 = load ptr, ptr %11, align 8
  %89 = load i32, ptr %12, align 4
  %90 = sext i32 %89 to i64
  %91 = load ptr, ptr %10, align 8
  %92 = getelementptr inbounds nuw %struct.IDEState, ptr %91, i32 0, i32 54
  store i32 0, ptr %15, align 4
  %93 = load i32, ptr %15, align 4
  %94 = and i32 %93, -2
  %95 = or i32 %94, 0
  store i32 %95, ptr %15, align 4
  %96 = load i32, ptr %15, align 4
  %97 = and i32 %96, -7
  %98 = or i32 %97, 0
  store i32 %98, ptr %15, align 4
  %99 = load i32, ptr %15, align 4
  %100 = and i32 %99, -9
  %101 = or i32 %100, 0
  store i32 %101, ptr %15, align 4
  %102 = load i32, ptr %15, align 4
  %103 = and i32 %102, -17
  %104 = or i32 %103, 0
  store i32 %104, ptr %15, align 4
  %105 = load i32, ptr %15, align 4
  %106 = and i32 %105, -2097121
  %107 = or i32 %106, 0
  store i32 %107, ptr %15, align 4
  %108 = load i32, ptr %15, align 4
  %109 = and i32 %108, -534773761
  %110 = or i32 %109, 0
  store i32 %110, ptr %15, align 4
  %111 = getelementptr inbounds nuw %struct.MemTxAttrs, ptr %15, i32 0, i32 1
  store i8 1, ptr %111, align 4
  %112 = getelementptr inbounds nuw %struct.MemTxAttrs, ptr %15, i32 0, i32 2
  store i8 0, ptr %112, align 1
  %113 = getelementptr inbounds nuw %struct.MemTxAttrs, ptr %15, i32 0, i32 3
  store i16 0, ptr %113, align 2
  %114 = load i64, ptr %15, align 4
  %115 = call i32 @dma_buf_write(ptr noundef %88, i64 noundef %90, ptr noundef null, ptr noundef %92, i64 %114)
  br label %116

116:                                              ; preds = %87, %58
  %117 = load ptr, ptr %10, align 8
  %118 = load i32, ptr %12, align 4
  call void @dma_buf_commit(ptr noundef %117, i32 noundef %118)
  %119 = load i32, ptr %12, align 4
  %120 = load ptr, ptr %10, align 8
  %121 = getelementptr inbounds nuw %struct.IDEState, ptr %120, i32 0, i32 44
  %122 = load i32, ptr %121, align 8
  %123 = add i32 %122, %119
  store i32 %123, ptr %121, align 8
  %124 = load ptr, ptr %6, align 8
  %125 = getelementptr inbounds nuw %struct.AHCIDevice, ptr %124, i32 0, i32 6
  %126 = load ptr, ptr %125, align 8
  %127 = load ptr, ptr %6, align 8
  %128 = getelementptr inbounds nuw %struct.AHCIDevice, ptr %127, i32 0, i32 2
  %129 = load i32, ptr %128, align 8
  %130 = load i32, ptr %12, align 4
  call void @trace_ahci_dma_rw_buf(ptr noundef %126, i32 noundef %129, i32 noundef %130)
  store i32 1, ptr %3, align 4
  store i32 1, ptr %13, align 4
  br label %131

131:                                              ; preds = %116, %54
  call void @llvm.lifetime.end.p0(i64 4, ptr %12) #15
  call void @llvm.lifetime.end.p0(i64 8, ptr %11) #15
  call void @llvm.lifetime.end.p0(i64 8, ptr %10) #15
  call void @llvm.lifetime.end.p0(i64 8, ptr %6) #15
  %132 = load i32, ptr %3, align 4
  ret i32 %132
}