; Function Attrs: nounwind sspstrong uwtable
define internal range(i32 0, 2) i32 @ahci_dma_rw_buf(ptr noundef %0, i1 noundef zeroext %1) #0 {
  %3 = alloca %struct.timeval, align 8
  %4 = getelementptr inbounds nuw i8, ptr %0, i64 192
  %5 = getelementptr inbounds nuw i8, ptr %0, i64 1080
  %6 = load ptr, ptr %5, align 8
  %7 = getelementptr inbounds nuw i8, ptr %0, i64 896
  %8 = load i32, ptr %7, align 8
  %9 = sext i32 %8 to i64
  %10 = getelementptr inbounds i8, ptr %6, i64 %9
  %11 = getelementptr inbounds nuw i8, ptr %0, i64 1000
  %12 = load i32, ptr %11, align 8
  %13 = sub i32 %12, %8
  %14 = getelementptr inbounds nuw i8, ptr %0, i64 1008
  %15 = getelementptr inbounds nuw i8, ptr %0, i64 2488
  %16 = load ptr, ptr %15, align 8
  %17 = sext i32 %13 to i64
  %18 = getelementptr inbounds nuw i8, ptr %0, i64 992
  %19 = load i64, ptr %18, align 8
  %20 = tail call fastcc i32 @ahci_populate_sglist(ptr noundef %0, ptr noundef nonnull %14, ptr noundef %16, i64 noundef %17, i64 noundef %19)
  %.not = icmp eq i32 %20, 0
  br i1 %.not, label %21, label %trace_ahci_dma_rw_buf.exit

21:                                               ; preds = %2
  br i1 %1, label %22, label %24

22:                                               ; preds = %21
  %23 = tail call i32 @dma_buf_read(ptr noundef %10, i64 noundef %17, ptr noundef null, ptr noundef nonnull %14, i64 4294967296) #14
  br label %26

24:                                               ; preds = %21
  %25 = tail call i32 @dma_buf_write(ptr noundef %10, i64 noundef %17, ptr noundef null, ptr noundef nonnull %14, i64 4294967296) #14
  br label %26

26:                                               ; preds = %24, %22
  tail call void @dma_buf_commit(ptr noundef nonnull %4, i32 noundef %13) #14
  %27 = load i32, ptr %7, align 8
  %28 = add i32 %27, %13
  store i32 %28, ptr %7, align 8
  %29 = getelementptr inbounds nuw i8, ptr %0, i64 2440
  %30 = load ptr, ptr %29, align 8
  %31 = getelementptr inbounds nuw i8, ptr %0, i64 2360
  %32 = load i32, ptr %31, align 8
  %33 = load i32, ptr @trace_events_enabled_count, align 4
  %.not.i.i = icmp eq i32 %33, 0
  br i1 %.not.i.i, label %trace_ahci_dma_rw_buf.exit, label %34, !prof !7

34:                                               ; preds = %26
  %35 = load i16, ptr @_TRACE_AHCI_DMA_RW_BUF_DSTATE, align 2
  %.not5.i.i = icmp eq i16 %35, 0
  br i1 %.not5.i.i, label %trace_ahci_dma_rw_buf.exit, label %36

36:                                               ; preds = %34
  %37 = load i32, ptr @qemu_loglevel, align 4
  %38 = and i32 %37, 32768
  %.not6.i.i = icmp eq i32 %38, 0
  br i1 %.not6.i.i, label %trace_ahci_dma_rw_buf.exit, label %39

39:                                               ; preds = %36
  %40 = load i8, ptr @message_with_timestamp, align 1, !range !9, !noundef !10
  %41 = trunc nuw i8 %40 to i1
  br i1 %41, label %42, label %48

42:                                               ; preds = %39
  call void @llvm.lifetime.start.p0(i64 16, ptr nonnull %3) #14
  call void @llvm.memset.p0.i64(ptr noundef nonnull align 8 dereferenceable(16) %3, i8 0, i64 16, i1 false), !annotation !11
  %43 = call i32 @gettimeofday(ptr noundef nonnull %3, ptr noundef null) #14
  %44 = tail call i32 @qemu_get_thread_id() #14
  %45 = load i64, ptr %3, align 8
  %46 = getelementptr inbounds nuw i8, ptr %3, i64 8
  %47 = load i64, ptr %46, align 8
  tail call void (ptr, ...) @qemu_log(ptr noundef nonnull @.str.186, i32 noundef %44, i64 noundef %45, i64 noundef %47, ptr noundef %30, i32 noundef %32, i32 noundef %13) #14
  call void @llvm.lifetime.end.p0(i64 16, ptr nonnull %3) #14
  br label %trace_ahci_dma_rw_buf.exit

48:                                               ; preds = %39
  tail call void (ptr, ...) @qemu_log(ptr noundef nonnull @.str.187, ptr noundef %30, i32 noundef %32, i32 noundef %13) #14
  br label %trace_ahci_dma_rw_buf.exit

trace_ahci_dma_rw_buf.exit:                       ; preds = %48, %42, %36, %34, %26, %2
  %.0 = phi i32 [ 0, %2 ], [ 1, %26 ], [ 1, %34 ], [ 1, %36 ], [ 1, %42 ], [ 1, %48 ]
  ret i32 %.0
}